; Function Attrs: mustprogress nounwind uwtable
define hidden noundef nonnull align 8 dereferenceable(16) ptr @_ZN15ZPhysicalMemoryaSERKS_(ptr noundef nonnull returned align 8 dereferenceable(16) %0, ptr nocapture noundef nonnull readonly align 8 dereferenceable(16) %1) local_unnamed_addr #1 align 2 {
  store i32 0, ptr %0, align 8
  %3 = getelementptr inbounds i8, ptr %0, i64 4
  %4 = load i32, ptr %3, align 4
  %5 = icmp eq i32 %4, 0
  br i1 %5, label %_ZN26GrowableArrayWithAllocatorI22ZPhysicalMemorySegment18GrowableArrayCHeapIS0_L8MEMFLAGS5EEE20clear_and_deallocateEv.exit, label %.loopexit.i.i

.loopexit.i.i:                                    ; preds = %2
  %6 = getelementptr inbounds i8, ptr %0, i64 8
  %7 = load ptr, ptr %6, align 8
  store i32 0, ptr %3, align 4
  %.not.i.i = icmp eq ptr %7, null
  br i1 %.not.i.i, label %8, label %.loopexit.thread.i.i

.loopexit.thread.i.i:                             ; preds = %.loopexit.i.i
  tail call void @_ZN27GrowableArrayCHeapAllocator10deallocateEPv(ptr noundef nonnull %7) #12
  br label %8

8:                                                ; preds = %.loopexit.thread.i.i, %.loopexit.i.i
  store ptr null, ptr %6, align 8
  br label %_ZN26GrowableArrayWithAllocatorI22ZPhysicalMemorySegment18GrowableArrayCHeapIS0_L8MEMFLAGS5EEE20clear_and_deallocateEv.exit

_ZN26GrowableArrayWithAllocatorI22ZPhysicalMemorySegment18GrowableArrayCHeapIS0_L8MEMFLAGS5EEE20clear_and_deallocateEv.exit: ; preds = %2, %8
  %9 = load i32, ptr %1, align 8
  %10 = icmp sgt i32 %9, 0
  br i1 %10, label %.lr.ph.i, label %_ZN15ZPhysicalMemory12add_segmentsERKS_.exit

.lr.ph.i:                                         ; preds = %_ZN26GrowableArrayWithAllocatorI22ZPhysicalMemorySegment18GrowableArrayCHeapIS0_L8MEMFLAGS5EEE20clear_and_deallocateEv.exit
  %11 = getelementptr inbounds i8, ptr %1, i64 8
  br label %12

12:                                               ; preds = %12, %.lr.ph.i
  %indvars.iv.i = phi i64 [ 0, %.lr.ph.i ], [ %indvars.iv.next.i, %12 ]
  %13 = load ptr, ptr %11, align 8
  %14 = getelementptr inbounds %class.ZPhysicalMemorySegment, ptr %13, i64 %indvars.iv.i
  tail call void @_ZN15ZPhysicalMemory11add_segmentERK22ZPhysicalMemorySegment(ptr noundef nonnull align 8 dereferenceable(16) %0, ptr noundef nonnull align 8 dereferenceable(17) %14)
  %indvars.iv.next.i = add nuw nsw i64 %indvars.iv.i, 1
  %15 = load i32, ptr %1, align 8
  %16 = sext i32 %15 to i64
  %17 = icmp slt i64 %indvars.iv.next.i, %16
  br i1 %17, label %12, label %_ZN15ZPhysicalMemory12add_segmentsERKS_.exit, !llvm.loop !9

_ZN15ZPhysicalMemory12add_segmentsERKS_.exit:     ; preds = %12, %_ZN26GrowableArrayWithAllocatorI22ZPhysicalMemorySegment18GrowableArrayCHeapIS0_L8MEMFLAGS5EEE20clear_and_deallocateEv.exit
  ret ptr %0
}